target datalayout = "e-m:e-p270:32:32-p271:32:32-p272:64:64-i64:64-i128:128-f80:128-n8:16:32:64-S128"
target triple = "x86_64-pc-linux-gnu"

%struct.record_functions_st = type { ptr, ptr, ptr, ptr, ptr, ptr, ptr, ptr, ptr, ptr, ptr, ptr, ptr, ptr, ptr, ptr, ptr, ptr }
%struct.tls_buffer_st = type { ptr, i64, i64, i64, i64, i32, i32 }
%struct.tls_rl_record_st = type { i32, i32, i64, i64, i64, ptr, ptr, ptr, i16, [8 x i8] }
%struct.ossl_record_layer_st = type { ptr, ptr, i32, i32, i32, i32, i32, ptr, i16, ptr, ptr, ptr, i64, i32, [33 x %struct.tls_buffer_st], i64, i64, %struct.tls_buffer_st, [32 x %struct.tls_rl_record_st], i64, i64, i64, i32, ptr, i64, [8 x i8], i32, i32, i64, i32, ptr, ptr, i64, ptr, ptr, i32, i32, i32, i64, i64, i64, [64 x i8], i32, i32, i32, ptr, ptr, i32, i32, i64, ptr, ptr, %struct.dtls_bitmap_st, %struct.dtls_bitmap_st, i32, ptr, ptr, ptr, ptr, ptr, i64, ptr }
%struct.dtls_bitmap_st = type { i64, [8 x i8] }

@.str = private unnamed_addr constant [43 x i8] c"../openssl/ssl/record/methods/tls_common.c\00", align 1
@__func__.tls_prepare_for_encryption_default = private unnamed_addr constant [35 x i8] c"tls_prepare_for_encryption_default\00", align 1

; Function Attrs: nounwind uwtable
define i32 @tls_prepare_for_encryption_default(ptr noundef %0, i64 noundef %1, ptr noundef %2, ptr noundef %3) #0 {
  %5 = alloca i32, align 4
  %6 = alloca ptr, align 8
  %7 = alloca i64, align 8
  %8 = alloca ptr, align 8
  %9 = alloca ptr, align 8
  %10 = alloca i64, align 8
  %11 = alloca ptr, align 8
  %12 = alloca ptr, align 8
  %13 = alloca i32, align 4
  store ptr %0, ptr %6, align 8, !tbaa !16
  store i64 %1, ptr %7, align 8, !tbaa !38
  store ptr %2, ptr %8, align 8, !tbaa !157
  store ptr %3, ptr %9, align 8, !tbaa !13
  call void @llvm.lifetime.start.p0(i64 8, ptr %10) #10
  call void @llvm.lifetime.start.p0(i64 8, ptr %11) #10
  %14 = load ptr, ptr %6, align 8, !tbaa !16
  %15 = getelementptr inbounds nuw %struct.ossl_record_layer_st, ptr %14, i32 0, i32 42
  %16 = load i32, ptr %15, align 8, !tbaa !39
  %17 = icmp ne i32 %16, 0
  br i1 %17, label %43, label %18

18:                                               ; preds = %4
  %19 = load i64, ptr %7, align 8, !tbaa !38
  %20 = icmp ne i64 %19, 0
  br i1 %20, label %21, label %43

21:                                               ; preds = %18
  call void @llvm.lifetime.start.p0(i64 8, ptr %12) #10
  %22 = load ptr, ptr %8, align 8, !tbaa !157
  %23 = load i64, ptr %7, align 8, !tbaa !38
  %24 = call i32 @WPACKET_allocate_bytes(ptr noundef %22, i64 noundef %23, ptr noundef %12)
  %25 = icmp ne i32 %24, 0
  br i1 %25, label %26, label %37

26:                                               ; preds = %21
  %27 = load ptr, ptr %6, align 8, !tbaa !16
  %28 = getelementptr inbounds nuw %struct.ossl_record_layer_st, ptr %27, i32 0, i32 61
  %29 = load ptr, ptr %28, align 8, !tbaa !73
  %30 = getelementptr inbounds nuw %struct.record_functions_st, ptr %29, i32 0, i32 2
  %31 = load ptr, ptr %30, align 8, !tbaa !97
  %32 = load ptr, ptr %6, align 8, !tbaa !16
  %33 = load ptr, ptr %9, align 8, !tbaa !13
  %34 = load ptr, ptr %12, align 8, !tbaa !15
  %35 = call i32 %31(ptr noundef %32, ptr noundef %33, ptr noundef %34, i32 noundef 1)
  %36 = icmp ne i32 %35, 0
  br i1 %36, label %39, label %37

37:                                               ; preds = %26, %21
  call void @ERR_new()
  call void @ERR_set_debug(ptr noundef @.str, i32 noundef 1649, ptr noundef @__func__.tls_prepare_for_encryption_default)
  %38 = load ptr, ptr %6, align 8, !tbaa !16
  call void (ptr, i32, i32, ptr, ...) @ossl_rlayer_fatal(ptr noundef %38, i32 noundef 80, i32 noundef 786691, ptr noundef null)
  store i32 0, ptr %5, align 4
  store i32 1, ptr %13, align 4
  br label %40

39:                                               ; preds = %26
  store i32 0, ptr %13, align 4
  br label %40

40:                                               ; preds = %39, %37
  call void @llvm.lifetime.end.p0(i64 8, ptr %12) #10
  %41 = load i32, ptr %13, align 4
  switch i32 %41, label %72 [
    i32 0, label %42
  ]

42:                                               ; preds = %40
  br label %43

43:                                               ; preds = %42, %18, %4
  %44 = load ptr, ptr %8, align 8, !tbaa !157
  %45 = load i64, ptr %7, align 8, !tbaa !38
  %46 = sub i64 80, %45
  %47 = call i32 @WPACKET_reserve_bytes(ptr noundef %44, i64 noundef %46, ptr noundef null)
  %48 = icmp ne i32 %47, 0
  br i1 %48, label %49, label %53

49:                                               ; preds = %43
  %50 = load ptr, ptr %8, align 8, !tbaa !157
  %51 = call i32 @WPACKET_get_length(ptr noundef %50, ptr noundef %10)
  %52 = icmp ne i32 %51, 0
  br i1 %52, label %55, label %53

53:                                               ; preds = %49, %43
  call void @ERR_new()
  call void @ERR_set_debug(ptr noundef @.str, i32 noundef 1667, ptr noundef @__func__.tls_prepare_for_encryption_default)
  %54 = load ptr, ptr %6, align 8, !tbaa !16
  call void (ptr, i32, i32, ptr, ...) @ossl_rlayer_fatal(ptr noundef %54, i32 noundef 80, i32 noundef 786691, ptr noundef null)
  store i32 0, ptr %5, align 4
  store i32 1, ptr %13, align 4
  br label %72

55:                                               ; preds = %49
  %56 = load ptr, ptr %8, align 8, !tbaa !157
  %57 = call ptr @WPACKET_get_curr(ptr noundef %56)
  %58 = load i64, ptr %10, align 8, !tbaa !38
  %59 = sub i64 0, %58
  %60 = getelementptr inbounds i8, ptr %57, i64 %59
  store ptr %60, ptr %11, align 8, !tbaa !15
  %61 = load ptr, ptr %11, align 8, !tbaa !15
  %62 = load ptr, ptr %9, align 8, !tbaa !13
  %63 = getelementptr inbounds nuw %struct.tls_rl_record_st, ptr %62, i32 0, i32 5
  store ptr %61, ptr %63, align 8, !tbaa !86
  %64 = load ptr, ptr %9, align 8, !tbaa !13
  %65 = getelementptr inbounds nuw %struct.tls_rl_record_st, ptr %64, i32 0, i32 5
  %66 = load ptr, ptr %65, align 8, !tbaa !86
  %67 = load ptr, ptr %9, align 8, !tbaa !13
  %68 = getelementptr inbounds nuw %struct.tls_rl_record_st, ptr %67, i32 0, i32 6
  store ptr %66, ptr %68, align 8, !tbaa !85
  %69 = load i64, ptr %10, align 8, !tbaa !38
  %70 = load ptr, ptr %9, align 8, !tbaa !13
  %71 = getelementptr inbounds nuw %struct.tls_rl_record_st, ptr %70, i32 0, i32 2
  store i64 %69, ptr %71, align 8, !tbaa !82
  store i32 1, ptr %5, align 4
  store i32 1, ptr %13, align 4
  br label %72

72:                                               ; preds = %55, %53, %40
  call void @llvm.lifetime.end.p0(i64 8, ptr %11) #10
  call void @llvm.lifetime.end.p0(i64 8, ptr %10) #10
  %73 = load i32, ptr %5, align 4
  ret i32 %73
}