; Function Attrs: nounwind uwtable
define range(i32 0, 2) i32 @tls_prepare_for_encryption_default(ptr noundef %0, i64 noundef %1, ptr noundef %2, ptr noundef %3) local_unnamed_addr #0 {
  %5 = alloca i64, align 8
  %6 = alloca ptr, align 8
  call void @llvm.lifetime.start.p0(i64 8, ptr nonnull %5) #13
  %7 = getelementptr inbounds nuw i8, ptr %0, i64 4272
  %8 = load i32, ptr %7, align 8, !tbaa !25
  %9 = icmp eq i32 %8, 0
  %10 = icmp ne i64 %1, 0
  %or.cond = and i1 %10, %9
  br i1 %or.cond, label %11, label %21

11:                                               ; preds = %4
  call void @llvm.lifetime.start.p0(i64 8, ptr nonnull %6) #13
  %12 = call i32 @WPACKET_allocate_bytes(ptr noundef %2, i64 noundef %1, ptr noundef nonnull %6) #13
  %.not = icmp eq i32 %12, 0
  br i1 %.not, label %.critedge, label %13

13:                                               ; preds = %11
  %14 = getelementptr inbounds nuw i8, ptr %0, i64 4424
  %15 = load ptr, ptr %14, align 8, !tbaa !56
  %16 = getelementptr inbounds nuw i8, ptr %15, i64 16
  %17 = load ptr, ptr %16, align 8, !tbaa !78
  %18 = load ptr, ptr %6, align 8, !tbaa !27
  %19 = call i32 %17(ptr noundef nonnull %0, ptr noundef %3, ptr noundef %18, i32 noundef 1) #13
  %.not22 = icmp eq i32 %19, 0
  br i1 %.not22, label %.critedge, label %20

.critedge:                                        ; preds = %13, %11
  call void @ERR_new() #13
  call void @ERR_set_debug(ptr noundef nonnull @.str, i32 noundef 1649, ptr noundef nonnull @__func__.tls_prepare_for_encryption_default) #13
  call void (ptr, i32, i32, ptr, ...) @ossl_rlayer_fatal(ptr noundef nonnull %0, i32 noundef 80, i32 noundef 786691, ptr noundef null)
  call void @llvm.lifetime.end.p0(i64 8, ptr nonnull %6) #13
  br label %35

20:                                               ; preds = %13
  call void @llvm.lifetime.end.p0(i64 8, ptr nonnull %6) #13
  br label %21

21:                                               ; preds = %20, %4
  %22 = sub i64 80, %1
  %23 = call i32 @WPACKET_reserve_bytes(ptr noundef %2, i64 noundef %22, ptr noundef null) #13
  %.not23 = icmp eq i32 %23, 0
  br i1 %.not23, label %26, label %24

24:                                               ; preds = %21
  %25 = call i32 @WPACKET_get_length(ptr noundef %2, ptr noundef nonnull %5) #13
  %.not24 = icmp eq i32 %25, 0
  br i1 %.not24, label %26, label %27

26:                                               ; preds = %24, %21
  call void @ERR_new() #13
  call void @ERR_set_debug(ptr noundef nonnull @.str, i32 noundef 1667, ptr noundef nonnull @__func__.tls_prepare_for_encryption_default) #13
  call void (ptr, i32, i32, ptr, ...) @ossl_rlayer_fatal(ptr noundef nonnull %0, i32 noundef 80, i32 noundef 786691, ptr noundef null)
  br label %35

27:                                               ; preds = %24
  %28 = call ptr @WPACKET_get_curr(ptr noundef %2) #13
  %29 = load i64, ptr %5, align 8, !tbaa !24
  %30 = sub i64 0, %29
  %31 = getelementptr inbounds i8, ptr %28, i64 %30
  %32 = getelementptr inbounds nuw i8, ptr %3, i64 32
  store ptr %31, ptr %32, align 8, !tbaa !69
  %33 = getelementptr inbounds nuw i8, ptr %3, i64 40
  store ptr %31, ptr %33, align 8, !tbaa !68
  %34 = getelementptr inbounds nuw i8, ptr %3, i64 8
  store i64 %29, ptr %34, align 8, !tbaa !65
  br label %35

35:                                               ; preds = %.critedge, %27, %26
  %.1 = phi i32 [ 1, %27 ], [ 0, %26 ], [ 0, %.critedge ]
  call void @llvm.lifetime.end.p0(i64 8, ptr nonnull %5) #13
  ret i32 %.1
}